; Function Attrs: mustprogress nounwind uwtable
define dso_local noundef ptr @_ZN4llvm25simplifyConstrainedFPCallEPNS_8CallBaseERKNS_13SimplifyQueryE(ptr noundef nonnull %0, ptr noundef nonnull align 8 dereferenceable(58) %1) local_unnamed_addr #0 {
  %3 = alloca %"class.llvm::SmallVector.56", align 8
  %4 = getelementptr inbounds nuw i8, ptr %0, i64 4
  %5 = load i32, ptr %4, align 4
  %6 = and i32 %5, 134217727
  %7 = zext nneg i32 %6 to i64
  %8 = sub nsw i64 0, %7
  %9 = getelementptr inbounds %"class.llvm::Use", ptr %0, i64 %8
  %10 = tail call noundef ptr @_ZN4llvm8CallBase7arg_endEv(ptr noundef nonnull align 8 dereferenceable(88) %0)
  %11 = getelementptr inbounds i8, ptr %3, i64 16
  call void @_ZN4llvm15SmallVectorBaseIjEC2EPvm(ptr noundef nonnull align 8 dereferenceable(16) %3, ptr noundef nonnull %11, i64 noundef 4) #18
  call void @_ZN4llvm15SmallVectorImplIPNS_5ValueEE6appendIPNS_3UseEvEEvT_S7_(ptr noundef nonnull align 8 dereferenceable(16) %3, ptr noundef nonnull %9, ptr noundef %10)
  %12 = getelementptr inbounds i8, ptr %0, i64 -32
  %13 = load ptr, ptr %12, align 8
  %14 = load ptr, ptr %3, align 8
  %15 = call noundef i64 @_ZNK4llvm15SmallVectorBaseIjE4sizeEv(ptr noundef nonnull align 8 dereferenceable(16) %3) #18
  %16 = call fastcc noundef ptr @_ZL19tryConstantFoldCallPN4llvm8CallBaseEPNS_5ValueENS_8ArrayRefIS3_EERKNS_13SimplifyQueryE(ptr noundef nonnull %0, ptr noundef %13, ptr %14, i64 %15, ptr noundef nonnull align 8 dereferenceable(58) %1)
  %.not = icmp eq ptr %16, null
  br i1 %.not, label %17, label %22

17:                                               ; preds = %2
  %18 = load ptr, ptr %12, align 8
  %19 = load ptr, ptr %3, align 8
  %20 = call noundef i64 @_ZNK4llvm15SmallVectorBaseIjE4sizeEv(ptr noundef nonnull align 8 dereferenceable(16) %3) #18
  %21 = call fastcc noundef ptr @_ZL17simplifyIntrinsicPN4llvm8CallBaseEPNS_5ValueENS_8ArrayRefIS3_EERKNS_13SimplifyQueryE(ptr noundef nonnull %0, ptr noundef %18, ptr %19, i64 %20, ptr noundef nonnull align 8 dereferenceable(58) %1)
  br label %22

22:                                               ; preds = %17, %2
  %.0 = phi ptr [ %16, %2 ], [ %21, %17 ]
  %23 = call noundef i64 @_ZNK4llvm15SmallVectorBaseIjE4sizeEv(ptr noundef nonnull align 8 dereferenceable(16) %3) #18
  %24 = load ptr, ptr %3, align 8
  %25 = icmp eq ptr %24, %11
  br i1 %25, label %_ZN4llvm11SmallVectorIPNS_5ValueELj4EED2Ev.exit, label %26

26:                                               ; preds = %22
  call void @free(ptr noundef %24) #18
  br label %_ZN4llvm11SmallVectorIPNS_5ValueELj4EED2Ev.exit

_ZN4llvm11SmallVectorIPNS_5ValueELj4EED2Ev.exit:  ; preds = %22, %26
  ret ptr %.0
}